target datalayout = "e-m:e-p270:32:32-p271:32:32-p272:64:64-i64:64-i128:128-f80:128-n8:16:32:64-S128"
target triple = "x86_64-pc-linux-gnu"

%struct.psa_hash_operation_s = type { i32, %union.psa_driver_hash_context_t }
%union.psa_driver_hash_context_t = type { %struct.mbedtls_psa_hash_operation_t }
%struct.mbedtls_psa_hash_operation_t = type { i32, %union.anon.0 }
%union.anon.0 = type { %struct.mbedtls_sha512_context }
%struct.mbedtls_sha512_context = type { [2 x i64], [8 x i64], [128 x i8], i32 }
%struct.psa_mac_operation_s = type { i32, i8, i8, %union.psa_driver_mac_context_t }
%union.psa_driver_mac_context_t = type { %struct.mbedtls_psa_mac_operation_t }
%struct.mbedtls_psa_mac_operation_t = type { i32, %union.anon.2 }
%union.anon.2 = type { %struct.mbedtls_psa_hmac_operation_t }
%struct.mbedtls_psa_hmac_operation_t = type { i32, %struct.psa_hash_operation_s, [128 x i8] }

; Function Attrs: nounwind uwtable
define hidden i32 @psa_driver_wrapper_mac_sign_finish(ptr noundef %0, ptr noundef %1, i64 noundef %2, ptr noundef %3) #0 {
  %5 = alloca i32, align 4
  %6 = alloca ptr, align 8
  %7 = alloca ptr, align 8
  %8 = alloca i64, align 8
  %9 = alloca ptr, align 8
  store ptr %0, ptr %6, align 8
  store ptr %1, ptr %7, align 8
  store i64 %2, ptr %8, align 8
  store ptr %3, ptr %9, align 8
  %10 = load ptr, ptr %6, align 8
  %11 = getelementptr inbounds %struct.psa_mac_operation_s, ptr %10, i32 0, i32 0
  %12 = load i32, ptr %11, align 8
  switch i32 %12, label %20 [
    i32 1, label %13
  ]

13:                                               ; preds = %4
  %14 = load ptr, ptr %6, align 8
  %15 = getelementptr inbounds %struct.psa_mac_operation_s, ptr %14, i32 0, i32 3
  %16 = load ptr, ptr %7, align 8
  %17 = load i64, ptr %8, align 8
  %18 = load ptr, ptr %9, align 8
  %19 = call i32 @mbedtls_psa_mac_sign_finish(ptr noundef %15, ptr noundef %16, i64 noundef %17, ptr noundef %18)
  store i32 %19, ptr %5, align 4
  br label %21

20:                                               ; preds = %4
  store i32 -135, ptr %5, align 4
  br label %21

21:                                               ; preds = %20, %13
  %22 = load i32, ptr %5, align 4
  ret i32 %22
}